; Function Attrs: null_pointer_is_valid sspstrong uwtable
define internal i32 @get_tag(ptr noundef %0, ptr noundef %1, ptr noundef %2, ptr noundef %3, i32 noundef %4, ptr noundef captures(none) initializes((208, 256)) %5) #0 {
  %7 = sext i32 %4 to i64
  %8 = getelementptr i8, ptr %0, i64 %7
  %9 = tail call ptr @g_strstr_len(ptr noundef %8, i64 noundef -1, ptr noundef %1)
  %10 = ptrtoint ptr %9 to i64
  %11 = ptrtoint ptr %0 to i64
  %12 = sub i64 %10, %11
  %13 = trunc i64 %12 to i32
  %14 = getelementptr inbounds nuw i8, ptr %5, i64 408
  %15 = load ptr, ptr %14, align 8
  %16 = tail call noalias ptr @wmem_strdup(ptr noundef %15, ptr noundef %1)
  %17 = tail call i64 @strlen(ptr noundef %1) #6
  %18 = trunc i64 %17 to i32
  %19 = load i32, ptr @hf_logcat_text_tag, align 4
  %20 = tail call ptr @proto_tree_add_string(ptr noundef %3, i32 noundef %19, ptr noundef %2, i32 noundef %13, i32 noundef %18, ptr noundef %1)
  %21 = getelementptr inbounds nuw i8, ptr %5, i64 208
  %22 = add i32 %18, 1
  store i32 7, ptr %21, align 8
  %23 = getelementptr inbounds nuw i8, ptr %5, i64 212
  store i32 %22, ptr %23, align 4
  %24 = getelementptr inbounds nuw i8, ptr %5, i64 216
  store ptr %16, ptr %24, align 8
  %25 = getelementptr inbounds nuw i8, ptr %5, i64 224
  store ptr null, ptr %25, align 8
  %26 = getelementptr inbounds nuw i8, ptr %5, i64 232
  store i32 7, ptr %26, align 8
  %27 = getelementptr inbounds nuw i8, ptr %5, i64 236
  store i32 12, ptr %27, align 4
  %28 = getelementptr inbounds nuw i8, ptr %5, i64 240
  store ptr @.str.27, ptr %28, align 8
  %29 = getelementptr inbounds nuw i8, ptr %5, i64 248
  store ptr null, ptr %29, align 8
  %30 = add i32 %18, %13
  ret i32 %30
}